ccopy_reg
_reconstructor
p0
(cgoogle.oauth2.credentials
Credentials
p1
c__builtin__
object
p2
Ntp3
Rp4
(dp5
S'_token_uri'
p6
Vhttps://oauth2.googleapis.com/token
p7
sS'_scopes'
p8
(lp9
S'https://www.googleapis.com/auth/spreadsheets.readonly'
p10
asS'_id_token'
p11
NsS'token'
p12
Vya29.Il-vB-LcbNnhPSltN9ZBV9e3o6OtfMMnUr0VrstCOI4U2mrCIlrrmpSNtI_x7Y4DurkM99Tg14r1MKadQ_AJP_lgVbnASyE1H604YQbZKG3bu4A2YLpaSDviTw5FjGgkBw
p13
sS'_refresh_token'
p14
V1//06HEkIKBRmoaLCgYIARAAGAYSNwF-L9IrctS7unnXvdXQLSTJVKDykl3E2ZarNnM87_3RvWqcevzLg6j8lUbq9MNetXsBko7zWBo
p15
sS'_client_secret'
p16
V5BB0OZr5r414X01i0hfKFj5w
p17
sS'_client_id'
p18
V552549113892-qgk7iqe7rval6r0bvlmghpgfplap961a.apps.googleusercontent.com
p19
sS'expiry'
p20
cdatetime
datetime
p21
(S'\x07\xe3\x0b\x07\x0c\x15\x11\x0c\xaet'
p22
tp23
Rp24
sb.